EXPORTS
    DllMain@12 @1
    SomeFunction @2
    _ZN10MyWin32DLL6FileIO10bufferDataEPKvii @3
    _ZN10MyWin32DLL6FileIO10deleteFileEPSs @4
    _ZN10MyWin32DLL6FileIO11bufferLinesESs @5
    _ZN10MyWin32DLL6FileIO11checkIfOpenEv @6
    _ZN10MyWin32DLL6FileIO11clearBufferEi @7
    _ZN10MyWin32DLL6FileIO11clearBufferEv @8
    _ZN10MyWin32DLL6FileIO11writeBufferEb @9
    _ZN10MyWin32DLL6FileIO11writeBufferEv @10
    _ZN10MyWin32DLL6FileIO12dataOpenFileESsb @11
    _ZN10MyWin32DLL6FileIO12textOpenFileESsb @12
    _ZN10MyWin32DLL6FileIO13getFileLengthEv @13
    _ZN10MyWin32DLL6FileIO13readWholeLineEPSs @14
    _ZN10MyWin32DLL6FileIO14bufferAdditionESs @15
    _ZN10MyWin32DLL6FileIO15clearDataBufferEi @16
    _ZN10MyWin32DLL6FileIO15clearDataBufferEv @17
    _ZN10MyWin32DLL6FileIO15fileConstructorEv @18
    _ZN10MyWin32DLL6FileIO15writeBufferDataEi @19
    _ZN10MyWin32DLL6FileIO15writeBufferDataEv @20
    _ZN10MyWin32DLL6FileIO15writeDataToFileEPKci @21
    _ZN10MyWin32DLL6FileIO15writeStringTextESs @22
    _ZN10MyWin32DLL6FileIO5goEndEi @23
    _ZN10MyWin32DLL6FileIO5goPosEii @24
    _ZN10MyWin32DLL6FileIO7goStartEi @25
    _ZN10MyWin32DLL6FileIO8readDataEiiPiz @26
    _ZN10MyWin32DLL6FileIO8readLineEPSs @27
    _ZN10MyWin32DLL6FileIO9closeFileEb @28
    _ZN10MyWin32DLL6FileIO9closeFileEv @29
    _ZN10MyWin32DLL6FileIO9writeDataEiiz @30
    _ZN10MyWin32DLL6FileIO9writeLineESs @31
    _ZN10MyWin32DLL6FileIOC1Ev @32
    _ZN10MyWin32DLL6FileIOC2Ev @33
    _ZN10MyWin32DLL6FileIOD1Ev @34
    _ZN10MyWin32DLL6FileIOD2Ev @35
