EXPORTS
    _ZN20MyFirstSharedLibrary6FileIO10bufferDataEPKvii @1
    _ZN20MyFirstSharedLibrary6FileIO10deleteFileEPSs @2
    _ZN20MyFirstSharedLibrary6FileIO11bufferLinesESs @3
    _ZN20MyFirstSharedLibrary6FileIO11checkIfOpenEv @4
    _ZN20MyFirstSharedLibrary6FileIO11clearBufferEi @5
    _ZN20MyFirstSharedLibrary6FileIO11clearBufferEv @6
    _ZN20MyFirstSharedLibrary6FileIO11writeBufferEb @7
    _ZN20MyFirstSharedLibrary6FileIO11writeBufferEv @8
    _ZN20MyFirstSharedLibrary6FileIO12dataOpenFileESsb @9
    _ZN20MyFirstSharedLibrary6FileIO12textOpenFileESsb @10
    _ZN20MyFirstSharedLibrary6FileIO13getFileLengthEv @11
    _ZN20MyFirstSharedLibrary6FileIO13readWholeLineEPSs @12
    _ZN20MyFirstSharedLibrary6FileIO14bufferAdditionESs @13
    _ZN20MyFirstSharedLibrary6FileIO15clearDataBufferEi @14
    _ZN20MyFirstSharedLibrary6FileIO15clearDataBufferEv @15
    _ZN20MyFirstSharedLibrary6FileIO15fileConstructorEv @16
    _ZN20MyFirstSharedLibrary6FileIO15writeBufferDataEi @17
    _ZN20MyFirstSharedLibrary6FileIO15writeBufferDataEv @18
    _ZN20MyFirstSharedLibrary6FileIO15writeDataToFileEPKci @19
    _ZN20MyFirstSharedLibrary6FileIO15writeStringTextESs @20
    _ZN20MyFirstSharedLibrary6FileIO5goEndEi @21
    _ZN20MyFirstSharedLibrary6FileIO5goPosEii @22
    _ZN20MyFirstSharedLibrary6FileIO7goStartEi @23
    _ZN20MyFirstSharedLibrary6FileIO8readDataEiiPiz @24
    _ZN20MyFirstSharedLibrary6FileIO8readLineEPSs @25
    _ZN20MyFirstSharedLibrary6FileIO9closeFileEb @26
    _ZN20MyFirstSharedLibrary6FileIO9closeFileEv @27
    _ZN20MyFirstSharedLibrary6FileIO9writeDataEiiz @28
    _ZN20MyFirstSharedLibrary6FileIO9writeLineESs @29
    _ZN20MyFirstSharedLibrary6FileIOC1Ev @30
    _ZN20MyFirstSharedLibrary6FileIOC2Ev @31
    _ZN20MyFirstSharedLibrary6FileIOD1Ev @32
    _ZN20MyFirstSharedLibrary6FileIOD2Ev @33
    _ZN9__gnu_cxx13new_allocatorISsE10deallocateEPSsj @34
    _ZN9__gnu_cxx13new_allocatorISsE7destroyEPSs @35
    _ZN9__gnu_cxx13new_allocatorISsE8allocateEjPKv @36
    _ZN9__gnu_cxx13new_allocatorISsE9constructEPSsRKSs @37
    _ZN9__gnu_cxx13new_allocatorISsEC2Ev @38
    _ZN9__gnu_cxx13new_allocatorISsED2Ev @39
    _ZN9__gnu_cxx13new_allocatorIcE10deallocateEPcj @40
    _ZN9__gnu_cxx13new_allocatorIcE7destroyEPc @41
    _ZN9__gnu_cxx13new_allocatorIcE8allocateEjPKv @42
    _ZN9__gnu_cxx13new_allocatorIcE9constructEPcRKc @43
    _ZN9__gnu_cxx14__alloc_traitsISaISsEE7destroyERS1_PSs @44
    _ZN9__gnu_cxx14__alloc_traitsISaISsEE8max_sizeERKS1_ @45
    _ZN9__gnu_cxx14__alloc_traitsISaISsEE9constructISsEEvRS1_PSsRKT_ @46
    _ZN9__gnu_cxx14__alloc_traitsISaIcEE7destroyERS1_Pc @47
    _ZN9__gnu_cxx14__alloc_traitsISaIcEE8max_sizeERKS1_ @48
    _ZN9__gnu_cxx14__alloc_traitsISaIcEE9constructIcEEvRS1_PcRKT_ @49
    _ZN9__gnu_cxx17__normal_iteratorIPKSsSt6vectorISsSaISsEEEC1ERKS2_ @50
    _ZN9__gnu_cxx17__normal_iteratorIPSsSt6vectorISsSaISsEEEC1ERKS1_ @51
    _ZN9__gnu_cxx17__normal_iteratorIPcSt6vectorIcSaIcEEEC1ERKS1_ @52
    _ZN9__gnu_cxxeqIPKSsSt6vectorISsSaISsEEEEbRKNS_17__normal_iteratorIT_T0_EESB_ @53
    _ZN9__gnu_cxxmiIPSsSt6vectorISsSaISsEEEENS_17__normal_iteratorIT_T0_E15difference_typeERKS8_SB_ @54
    _ZN9__gnu_cxxmiIPcSt6vectorIcSaIcEEEENS_17__normal_iteratorIT_T0_E15difference_typeERKS8_SB_ @55
    _ZNK9__gnu_cxx13new_allocatorISsE8max_sizeEv @56
    _ZNK9__gnu_cxx13new_allocatorIcE8max_sizeEv @57
    _ZNK9__gnu_cxx17__normal_iteratorIPKSsSt6vectorISsSaISsEEE4baseEv @58
    _ZNK9__gnu_cxx17__normal_iteratorIPSsSt6vectorISsSaISsEEE4baseEv @59
    _ZNK9__gnu_cxx17__normal_iteratorIPSsSt6vectorISsSaISsEEEdeEv @60
    _ZNK9__gnu_cxx17__normal_iteratorIPcSt6vectorIcSaIcEEE4baseEv @61
    _ZNK9__gnu_cxx17__normal_iteratorIPcSt6vectorIcSaIcEEEdeEv @62
    _ZNKSt12_Vector_baseISsSaISsEE19_M_get_Tp_allocatorEv @63
    _ZNKSt12_Vector_baseIcSaIcEE19_M_get_Tp_allocatorEv @64
    _ZNKSt4fposIiEmiERKS0_ @65
    _ZNKSt6vectorISsSaISsEE12_M_check_lenEjPKc @66
    _ZNKSt6vectorISsSaISsEE3endEv @67
    _ZNKSt6vectorISsSaISsEE4sizeEv @68
    _ZNKSt6vectorISsSaISsEE5beginEv @69
    _ZNKSt6vectorISsSaISsEE5emptyEv @70
    _ZNKSt6vectorISsSaISsEE8capacityEv @71
    _ZNKSt6vectorISsSaISsEE8max_sizeEv @72
    _ZNKSt6vectorIcSaIcEE12_M_check_lenEjPKc @73
    _ZNKSt6vectorIcSaIcEE4sizeEv @74
    _ZNKSt6vectorIcSaIcEE8max_sizeEv @75
    _ZNSaISsEC2Ev @76
    _ZNSaISsED2Ev @77
    _ZNSt10_Iter_baseIPSsLb0EE7_S_baseES0_ @78
    _ZNSt10_Iter_baseIPcLb0EE7_S_baseES0_ @79
    _ZNSt11__copy_moveILb0ELb1ESt26random_access_iterator_tagE8__copy_mIcEEPT_PKS3_S6_S4_ @80
    _ZNSt12_Destroy_auxILb0EE9__destroyIPSsEEvT_S3_ @81
    _ZNSt12_Destroy_auxILb1EE9__destroyIPcEEvT_S3_ @82
    _ZNSt12_Vector_baseISsSaISsEE11_M_allocateEj @83
    _ZNSt12_Vector_baseISsSaISsEE12_Vector_implC1Ev @84
    _ZNSt12_Vector_baseISsSaISsEE12_Vector_implD1Ev @85
    _ZNSt12_Vector_baseISsSaISsEE13_M_deallocateEPSsj @86
    _ZNSt12_Vector_baseISsSaISsEE19_M_get_Tp_allocatorEv @87
    _ZNSt12_Vector_baseISsSaISsEEC2Ev @88
    _ZNSt12_Vector_baseISsSaISsEED2Ev @89
    _ZNSt12_Vector_baseIcSaIcEE11_M_allocateEj @90
    _ZNSt12_Vector_baseIcSaIcEE12_Vector_implC1Ev @91
    _ZNSt12_Vector_baseIcSaIcEE12_Vector_implD1Ev @92
    _ZNSt12_Vector_baseIcSaIcEE13_M_deallocateEPcj @93
    _ZNSt12_Vector_baseIcSaIcEE19_M_get_Tp_allocatorEv @94
    _ZNSt12_Vector_baseIcSaIcEEC2Ev @95
    _ZNSt12_Vector_baseIcSaIcEED2Ev @96
    _ZNSt20__copy_move_backwardILb0ELb0ESt26random_access_iterator_tagE13__copy_move_bIPSsS3_EET0_T_S5_S4_ @97
    _ZNSt20__copy_move_backwardILb0ELb1ESt26random_access_iterator_tagE13__copy_move_bIcEEPT_PKS3_S6_S4_ @98
    _ZNSt20__uninitialized_copyILb0EE13__uninit_copyIPSsS2_EET0_T_S4_S3_ @99
    _ZNSt20__uninitialized_copyILb1EE13__uninit_copyIPcS2_EET0_T_S4_S3_ @100
    _ZNSt22__uninitialized_fill_nILb1EE15__uninit_fill_nIPcjcEEvT_T0_RKT1_ @101
    _ZNSt4fposIiEC1Ex @102
    _ZNSt6vectorISsSaISsEE13_M_insert_auxEN9__gnu_cxx17__normal_iteratorIPSsS1_EERKSs @103
    _ZNSt6vectorISsSaISsEE15_M_erase_at_endEPSs @104
    _ZNSt6vectorISsSaISsEE20_M_allocate_and_copyIPSsEES3_jT_S4_ @105
    _ZNSt6vectorISsSaISsEE3endEv @106
    _ZNSt6vectorISsSaISsEE5beginEv @107
    _ZNSt6vectorISsSaISsEE5clearEv @108
    _ZNSt6vectorISsSaISsEE7reserveEj @109
    _ZNSt6vectorISsSaISsEE9push_backERKSs @110
    _ZNSt6vectorISsSaISsEEC1Ev @111
    _ZNSt6vectorISsSaISsEED1Ev @112
    _ZNSt6vectorISsSaISsEEixEj @113
    _ZNSt6vectorIcSaIcEE13_M_insert_auxEN9__gnu_cxx17__normal_iteratorIPcS1_EERKc @114
    _ZNSt6vectorIcSaIcEE14_M_fill_insertEN9__gnu_cxx17__normal_iteratorIPcS1_EEjRKc @115
    _ZNSt6vectorIcSaIcEE15_M_erase_at_endEPc @116
    _ZNSt6vectorIcSaIcEE3endEv @117
    _ZNSt6vectorIcSaIcEE5beginEv @118
    _ZNSt6vectorIcSaIcEE5clearEv @119
    _ZNSt6vectorIcSaIcEE6insertEN9__gnu_cxx17__normal_iteratorIPcS1_EEjRKc @120
    _ZNSt6vectorIcSaIcEE6resizeEjc @121
    _ZNSt6vectorIcSaIcEE9push_backERKc @122
    _ZNSt6vectorIcSaIcEEC1Ev @123
    _ZNSt6vectorIcSaIcEED1Ev @124
    _ZNSt6vectorIcSaIcEEixEj @125
    _ZSt10_ConstructISsSsEvPT_RKT0_ @126
    _ZSt10__fill_n_aIjcEN9__gnu_cxx11__enable_ifIXsrSt9__is_byteIT0_E7__valueEPS3_E6__typeES5_T_RKS3_ @127
    _ZSt11__addressofISsEPT_RS0_ @128
    _ZSt12__miter_baseIPSsENSt11_Miter_baseIT_E13iterator_typeES2_ @129
    _ZSt12__miter_baseIPcENSt11_Miter_baseIT_E13iterator_typeES2_ @130
    _ZSt12__niter_baseIPSsENSt11_Niter_baseIT_E13iterator_typeES2_ @131
    _ZSt12__niter_baseIPcENSt11_Niter_baseIT_E13iterator_typeES2_ @132
    _ZSt13__copy_move_aILb0EPcS0_ET1_T0_S2_S1_ @133
    _ZSt13copy_backwardIPSsS0_ET0_T_S2_S1_ @134
    _ZSt13copy_backwardIPcS0_ET0_T_S2_S1_ @135
    _ZSt14__copy_move_a2ILb0EPcS0_ET1_T0_S2_S1_ @136
    _ZSt18uninitialized_copyIPSsS0_ET0_T_S2_S1_ @137
    _ZSt18uninitialized_copyIPcS0_ET0_T_S2_S1_ @138
    _ZSt20uninitialized_fill_nIPcjcEvT_T0_RKT1_ @139
    _ZSt22__copy_move_backward_aILb0EPSsS0_ET1_T0_S2_S1_ @140
    _ZSt22__copy_move_backward_aILb0EPcS0_ET1_T0_S2_S1_ @141
    _ZSt22__uninitialized_copy_aIPSsS0_SsET0_T_S2_S1_RSaIT1_E @142
    _ZSt22__uninitialized_copy_aIPcS0_cET0_T_S2_S1_RSaIT1_E @143
    _ZSt22__uninitialized_move_aIPcS0_SaIcEET0_T_S3_S2_RT1_ @144
    _ZSt23__copy_move_backward_a2ILb0EPSsS0_ET1_T0_S2_S1_ @145
    _ZSt23__copy_move_backward_a2ILb0EPcS0_ET1_T0_S2_S1_ @146
    _ZSt24__uninitialized_fill_n_aIPcjccEvT_T0_RKT1_RSaIT2_E @147
    _ZSt34__uninitialized_move_if_noexcept_aIPSsS0_SaISsEET0_T_S3_S2_RT1_ @148
    _ZSt34__uninitialized_move_if_noexcept_aIPcS0_SaIcEET0_T_S3_S2_RT1_ @149
    _ZSt3maxIjERKT_S2_S2_ @150
    _ZSt4copyIPcS0_ET0_T_S2_S1_ @151
    _ZSt4fillIPccEvT_S1_RKT0_ @152
    _ZSt6fill_nIPcjcET_S1_T0_RKT1_ @153
    _ZSt8_DestroyIPSsEvT_S1_ @154
    _ZSt8_DestroyIPSsSsEvT_S1_RSaIT0_E @155
    _ZSt8_DestroyIPcEvT_S1_ @156
    _ZSt8_DestroyIPccEvT_S1_RSaIT0_E @157
    _ZSt8_DestroyISsEvPT_ @158
    _ZSt8__fill_aIcEN9__gnu_cxx11__enable_ifIXsrSt9__is_byteIT_E7__valueEvE6__typeEPS3_S7_RKS3_ @159
    _ZStorSt13_Ios_OpenmodeS_ @160
    _ZdlPvS_ @161
    _ZnwjPv @162
    _get_output_format @163
